target datalayout = "e-m:e-p270:32:32-p271:32:32-p272:64:64-i64:64-i128:128-f80:128-n8:16:32:64-S128"
target triple = "x86_64-pc-linux-gnu"

%struct.hwloc_internal_memattr_target_s = type { ptr, i32, i32, i64, i64, i32, ptr }
%struct.hwloc_internal_memattr_initiator_s = type { %struct.hwloc_internal_location_s, i64 }
%struct.hwloc_internal_location_s = type { i32, %union.anon }
%union.anon = type { %struct.anon }
%struct.anon = type { ptr, i64, i32 }

; Function Attrs: nounwind uwtable
define internal i32 @match_internal_location(ptr noundef %0, ptr noundef %1) #0 {
  %3 = alloca i32, align 4
  %4 = alloca ptr, align 8
  %5 = alloca ptr, align 8
  store ptr %0, ptr %4, align 8, !tbaa !99
  store ptr %1, ptr %5, align 8, !tbaa !59
  %6 = load ptr, ptr %4, align 8, !tbaa !99
  %7 = getelementptr inbounds nuw %struct.hwloc_internal_location_s, ptr %6, i32 0, i32 0
  %8 = load i32, ptr %7, align 8, !tbaa !101
  %9 = load ptr, ptr %5, align 8, !tbaa !59
  %10 = getelementptr inbounds nuw %struct.hwloc_internal_memattr_initiator_s, ptr %9, i32 0, i32 0
  %11 = getelementptr inbounds nuw %struct.hwloc_internal_location_s, ptr %10, i32 0, i32 0
  %12 = load i32, ptr %11, align 8, !tbaa !60
  %13 = icmp ne i32 %8, %12
  br i1 %13, label %14, label %15

14:                                               ; preds = %2
  store i32 0, ptr %3, align 4
  br label %54

15:                                               ; preds = %2
  %16 = load ptr, ptr %4, align 8, !tbaa !99
  %17 = getelementptr inbounds nuw %struct.hwloc_internal_location_s, ptr %16, i32 0, i32 0
  %18 = load i32, ptr %17, align 8, !tbaa !101
  switch i32 %18, label %53 [
    i32 1, label %19
    i32 0, label %28
  ]

19:                                               ; preds = %15
  %20 = load ptr, ptr %4, align 8, !tbaa !99
  %21 = getelementptr inbounds nuw %struct.hwloc_internal_location_s, ptr %20, i32 0, i32 1
  %22 = load ptr, ptr %21, align 8, !tbaa !63
  %23 = load ptr, ptr %5, align 8, !tbaa !59
  %24 = getelementptr inbounds nuw %struct.hwloc_internal_memattr_initiator_s, ptr %23, i32 0, i32 0
  %25 = getelementptr inbounds nuw %struct.hwloc_internal_location_s, ptr %24, i32 0, i32 1
  %26 = load ptr, ptr %25, align 8, !tbaa !63
  %27 = call i32 @hwloc_bitmap_isincluded(ptr noundef %22, ptr noundef %26) #15
  store i32 %27, ptr %3, align 4
  br label %54

28:                                               ; preds = %15
  %29 = load ptr, ptr %4, align 8, !tbaa !99
  %30 = getelementptr inbounds nuw %struct.hwloc_internal_location_s, ptr %29, i32 0, i32 1
  %31 = getelementptr inbounds nuw %struct.anon, ptr %30, i32 0, i32 2
  %32 = load i32, ptr %31, align 8, !tbaa !63
  %33 = load ptr, ptr %5, align 8, !tbaa !59
  %34 = getelementptr inbounds nuw %struct.hwloc_internal_memattr_initiator_s, ptr %33, i32 0, i32 0
  %35 = getelementptr inbounds nuw %struct.hwloc_internal_location_s, ptr %34, i32 0, i32 1
  %36 = getelementptr inbounds nuw %struct.anon, ptr %35, i32 0, i32 2
  %37 = load i32, ptr %36, align 8, !tbaa !63
  %38 = icmp eq i32 %32, %37
  br i1 %38, label %39, label %50

39:                                               ; preds = %28
  %40 = load ptr, ptr %4, align 8, !tbaa !99
  %41 = getelementptr inbounds nuw %struct.hwloc_internal_location_s, ptr %40, i32 0, i32 1
  %42 = getelementptr inbounds nuw %struct.anon, ptr %41, i32 0, i32 1
  %43 = load i64, ptr %42, align 8, !tbaa !63
  %44 = load ptr, ptr %5, align 8, !tbaa !59
  %45 = getelementptr inbounds nuw %struct.hwloc_internal_memattr_initiator_s, ptr %44, i32 0, i32 0
  %46 = getelementptr inbounds nuw %struct.hwloc_internal_location_s, ptr %45, i32 0, i32 1
  %47 = getelementptr inbounds nuw %struct.anon, ptr %46, i32 0, i32 1
  %48 = load i64, ptr %47, align 8, !tbaa !63
  %49 = icmp eq i64 %43, %48
  br label %50

50:                                               ; preds = %39, %28
  %51 = phi i1 [ false, %28 ], [ %49, %39 ]
  %52 = zext i1 %51 to i32
  store i32 %52, ptr %3, align 4
  br label %54

53:                                               ; preds = %15
  store i32 0, ptr %3, align 4
  br label %54

54:                                               ; preds = %53, %50, %19, %14
  %55 = load i32, ptr %3, align 4
  ret i32 %55
}

; Function Attrs: nounwind uwtable
define internal ptr @hwloc__memattr_target_get_initiator(ptr noundef %0, ptr noundef %1, i32 noundef %2) #0 {
  %4 = alloca ptr, align 8
  %5 = alloca ptr, align 8
  %6 = alloca ptr, align 8
  %7 = alloca i32, align 4
  %8 = alloca ptr, align 8
  %9 = alloca ptr, align 8
  %10 = alloca i32, align 4
  %11 = alloca ptr, align 8
  %12 = alloca i32, align 4
  store ptr %0, ptr %5, align 8, !tbaa !49
  store ptr %1, ptr %6, align 8, !tbaa !99
  store i32 %2, ptr %7, align 4, !tbaa !45
  call void @llvm.lifetime.start.p0(i64 8, ptr %8) #14
  call void @llvm.lifetime.start.p0(i64 8, ptr %9) #14
  call void @llvm.lifetime.start.p0(i64 4, ptr %10) #14
  store i32 0, ptr %10, align 4, !tbaa !45
  br label %13

13:                                               ; preds = %36, %3
  %14 = load i32, ptr %10, align 4, !tbaa !45
  %15 = load ptr, ptr %5, align 8, !tbaa !49
  %16 = getelementptr inbounds nuw %struct.hwloc_internal_memattr_target_s, ptr %15, i32 0, i32 5
  %17 = load i32, ptr %16, align 8, !tbaa !50
  %18 = icmp ult i32 %14, %17
  br i1 %18, label %19, label %39

19:                                               ; preds = %13
  call void @llvm.lifetime.start.p0(i64 8, ptr %11) #14
  %20 = load ptr, ptr %5, align 8, !tbaa !49
  %21 = getelementptr inbounds nuw %struct.hwloc_internal_memattr_target_s, ptr %20, i32 0, i32 6
  %22 = load ptr, ptr %21, align 8, !tbaa !54
  %23 = load i32, ptr %10, align 4, !tbaa !45
  %24 = zext i32 %23 to i64
  %25 = getelementptr inbounds nuw %struct.hwloc_internal_memattr_initiator_s, ptr %22, i64 %24
  store ptr %25, ptr %11, align 8, !tbaa !59
  %26 = load ptr, ptr %6, align 8, !tbaa !99
  %27 = load ptr, ptr %11, align 8, !tbaa !59
  %28 = call i32 @match_internal_location(ptr noundef %26, ptr noundef %27)
  %29 = icmp ne i32 %28, 0
  br i1 %29, label %30, label %32

30:                                               ; preds = %19
  %31 = load ptr, ptr %11, align 8, !tbaa !59
  store ptr %31, ptr %4, align 8
  store i32 1, ptr %12, align 4
  br label %33

32:                                               ; preds = %19
  store i32 0, ptr %12, align 4
  br label %33

33:                                               ; preds = %32, %30
  call void @llvm.lifetime.end.p0(i64 8, ptr %11) #14
  %34 = load i32, ptr %12, align 4
  switch i32 %34, label %99 [
    i32 0, label %35
  ]

35:                                               ; preds = %33
  br label %36

36:                                               ; preds = %35
  %37 = load i32, ptr %10, align 4, !tbaa !45
  %38 = add i32 %37, 1
  store i32 %38, ptr %10, align 4, !tbaa !45
  br label %13, !llvm.loop !161

39:                                               ; preds = %13
  %40 = load i32, ptr %7, align 4, !tbaa !45
  %41 = icmp ne i32 %40, 0
  br i1 %41, label %43, label %42

42:                                               ; preds = %39
  store ptr null, ptr %4, align 8
  store i32 1, ptr %12, align 4
  br label %99

43:                                               ; preds = %39
  %44 = load ptr, ptr %5, align 8, !tbaa !49
  %45 = getelementptr inbounds nuw %struct.hwloc_internal_memattr_target_s, ptr %44, i32 0, i32 6
  %46 = load ptr, ptr %45, align 8, !tbaa !54
  %47 = load ptr, ptr %5, align 8, !tbaa !49
  %48 = getelementptr inbounds nuw %struct.hwloc_internal_memattr_target_s, ptr %47, i32 0, i32 5
  %49 = load i32, ptr %48, align 8, !tbaa !50
  %50 = add i32 %49, 1
  %51 = zext i32 %50 to i64
  %52 = mul i64 %51, 40
  %53 = call ptr @realloc(ptr noundef %46, i64 noundef %52) #17
  store ptr %53, ptr %8, align 8, !tbaa !59
  %54 = load ptr, ptr %8, align 8, !tbaa !59
  %55 = icmp ne ptr %54, null
  br i1 %55, label %57, label %56

56:                                               ; preds = %43
  store ptr null, ptr %4, align 8
  store i32 1, ptr %12, align 4
  br label %99

57:                                               ; preds = %43
  %58 = load ptr, ptr %8, align 8, !tbaa !59
  %59 = load ptr, ptr %5, align 8, !tbaa !49
  %60 = getelementptr inbounds nuw %struct.hwloc_internal_memattr_target_s, ptr %59, i32 0, i32 5
  %61 = load i32, ptr %60, align 8, !tbaa !50
  %62 = zext i32 %61 to i64
  %63 = getelementptr inbounds nuw %struct.hwloc_internal_memattr_initiator_s, ptr %58, i64 %62
  store ptr %63, ptr %9, align 8, !tbaa !59
  %64 = load ptr, ptr %9, align 8, !tbaa !59
  %65 = getelementptr inbounds nuw %struct.hwloc_internal_memattr_initiator_s, ptr %64, i32 0, i32 0
  %66 = load ptr, ptr %6, align 8, !tbaa !99
  call void @llvm.memcpy.p0.p0.i64(ptr align 8 %65, ptr align 8 %66, i64 32, i1 false), !tbaa.struct !107
  %67 = load ptr, ptr %6, align 8, !tbaa !99
  %68 = getelementptr inbounds nuw %struct.hwloc_internal_location_s, ptr %67, i32 0, i32 0
  %69 = load i32, ptr %68, align 8, !tbaa !101
  %70 = icmp eq i32 %69, 1
  br i1 %70, label %71, label %86

71:                                               ; preds = %57
  %72 = load ptr, ptr %6, align 8, !tbaa !99
  %73 = getelementptr inbounds nuw %struct.hwloc_internal_location_s, ptr %72, i32 0, i32 1
  %74 = load ptr, ptr %73, align 8, !tbaa !63
  %75 = call noalias ptr @hwloc_bitmap_dup(ptr noundef %74)
  %76 = load ptr, ptr %9, align 8, !tbaa !59
  %77 = getelementptr inbounds nuw %struct.hwloc_internal_memattr_initiator_s, ptr %76, i32 0, i32 0
  %78 = getelementptr inbounds nuw %struct.hwloc_internal_location_s, ptr %77, i32 0, i32 1
  store ptr %75, ptr %78, align 8, !tbaa !63
  %79 = load ptr, ptr %9, align 8, !tbaa !59
  %80 = getelementptr inbounds nuw %struct.hwloc_internal_memattr_initiator_s, ptr %79, i32 0, i32 0
  %81 = getelementptr inbounds nuw %struct.hwloc_internal_location_s, ptr %80, i32 0, i32 1
  %82 = load ptr, ptr %81, align 8, !tbaa !63
  %83 = icmp ne ptr %82, null
  br i1 %83, label %85, label %84

84:                                               ; preds = %71
  br label %95

85:                                               ; preds = %71
  br label %86

86:                                               ; preds = %85, %57
  %87 = load ptr, ptr %5, align 8, !tbaa !49
  %88 = getelementptr inbounds nuw %struct.hwloc_internal_memattr_target_s, ptr %87, i32 0, i32 5
  %89 = load i32, ptr %88, align 8, !tbaa !50
  %90 = add i32 %89, 1
  store i32 %90, ptr %88, align 8, !tbaa !50
  %91 = load ptr, ptr %8, align 8, !tbaa !59
  %92 = load ptr, ptr %5, align 8, !tbaa !49
  %93 = getelementptr inbounds nuw %struct.hwloc_internal_memattr_target_s, ptr %92, i32 0, i32 6
  store ptr %91, ptr %93, align 8, !tbaa !54
  %94 = load ptr, ptr %9, align 8, !tbaa !59
  store ptr %94, ptr %4, align 8
  store i32 1, ptr %12, align 4
  br label %99

95:                                               ; preds = %84
  %96 = load ptr, ptr %8, align 8, !tbaa !59
  %97 = load ptr, ptr %5, align 8, !tbaa !49
  %98 = getelementptr inbounds nuw %struct.hwloc_internal_memattr_target_s, ptr %97, i32 0, i32 6
  store ptr %96, ptr %98, align 8, !tbaa !54
  store ptr null, ptr %4, align 8
  store i32 1, ptr %12, align 4
  br label %99

99:                                               ; preds = %95, %86, %56, %42, %33
  call void @llvm.lifetime.end.p0(i64 4, ptr %10) #14
  call void @llvm.lifetime.end.p0(i64 8, ptr %9) #14
  call void @llvm.lifetime.end.p0(i64 8, ptr %8) #14
  %100 = load ptr, ptr %4, align 8
  ret ptr %100
}