; Function Attrs: nounwind uwtable
define internal fastcc noundef ptr @hwloc__memattr_target_get_initiator(ptr noundef captures(none) %0, ptr noundef readonly captures(none) %1, i32 noundef range(i32 0, 2) %2) unnamed_addr #3 {
  %4 = getelementptr inbounds nuw i8, ptr %0, i64 32
  %5 = load i32, ptr %4, align 8, !tbaa !40
  %.not54 = icmp eq i32 %5, 0
  br i1 %.not54, label %._crit_edge, label %.lr.ph

.lr.ph:                                           ; preds = %3
  %6 = getelementptr inbounds nuw i8, ptr %0, i64 40
  %7 = load ptr, ptr %6, align 8, !tbaa !44
  %8 = load i32, ptr %1, align 8, !tbaa !93
  %.fr = freeze i32 %8
  %9 = getelementptr inbounds nuw i8, ptr %1, i64 24
  %10 = getelementptr inbounds nuw i8, ptr %1, i64 16
  %11 = getelementptr inbounds nuw i8, ptr %1, i64 8
  switch i32 %.fr, label %._crit_edge [
    i32 1, label %.lr.ph.split.us.preheader
    i32 0, label %.lr.ph.split.us44.preheader
  ]

.lr.ph.split.us44.preheader:                      ; preds = %.lr.ph
  %wide.trip.count = zext i32 %5 to i64
  br label %.lr.ph.split.us44

.lr.ph.split.us.preheader:                        ; preds = %.lr.ph
  %wide.trip.count66 = zext i32 %5 to i64
  br label %.lr.ph.split.us

.lr.ph.split.us:                                  ; preds = %.lr.ph.split.us.preheader, %match_internal_location.exit.thread.us
  %indvars.iv63 = phi i64 [ 0, %.lr.ph.split.us.preheader ], [ %indvars.iv.next64, %match_internal_location.exit.thread.us ]
  %12 = getelementptr inbounds nuw %struct.hwloc_internal_memattr_initiator_s, ptr %7, i64 %indvars.iv63
  %13 = load i32, ptr %12, align 8, !tbaa !45
  %.not.i.us = icmp eq i32 %13, 1
  br i1 %.not.i.us, label %match_internal_location.exit.us, label %match_internal_location.exit.thread.us

match_internal_location.exit.us:                  ; preds = %.lr.ph.split.us
  %14 = load ptr, ptr %11, align 8, !tbaa !48
  %15 = getelementptr inbounds nuw i8, ptr %12, i64 8
  %16 = load ptr, ptr %15, align 8, !tbaa !48
  %17 = tail call i32 @hwloc_bitmap_isincluded(ptr noundef %14, ptr noundef %16) #30
  %18 = icmp eq i32 %17, 0
  br i1 %18, label %match_internal_location.exit.thread.us, label %.loopexit

match_internal_location.exit.thread.us:           ; preds = %match_internal_location.exit.us, %.lr.ph.split.us
  %indvars.iv.next64 = add nuw nsw i64 %indvars.iv63, 1
  %exitcond67.not = icmp eq i64 %indvars.iv.next64, %wide.trip.count66
  br i1 %exitcond67.not, label %._crit_edge, label %.lr.ph.split.us, !llvm.loop !91

.lr.ph.split.us44:                                ; preds = %.lr.ph.split.us44.preheader, %match_internal_location.exit.thread.us49
  %indvars.iv = phi i64 [ 0, %.lr.ph.split.us44.preheader ], [ %indvars.iv.next, %match_internal_location.exit.thread.us49 ]
  %19 = getelementptr inbounds nuw %struct.hwloc_internal_memattr_initiator_s, ptr %7, i64 %indvars.iv
  %20 = load i32, ptr %19, align 8, !tbaa !45
  %.not.i.us46 = icmp eq i32 %20, 0
  br i1 %.not.i.us46, label %21, label %match_internal_location.exit.thread.us49

21:                                               ; preds = %.lr.ph.split.us44
  %22 = load i32, ptr %9, align 8, !tbaa !48
  %23 = getelementptr inbounds nuw i8, ptr %19, i64 24
  %24 = load i32, ptr %23, align 8, !tbaa !48
  %25 = icmp eq i32 %22, %24
  br i1 %25, label %match_internal_location.exit.us47, label %match_internal_location.exit.thread.us49

match_internal_location.exit.us47:                ; preds = %21
  %26 = load i64, ptr %10, align 8, !tbaa !48
  %27 = getelementptr inbounds nuw i8, ptr %19, i64 16
  %28 = load i64, ptr %27, align 8, !tbaa !48
  %.not55 = icmp eq i64 %26, %28
  br i1 %.not55, label %.loopexit, label %match_internal_location.exit.thread.us49

match_internal_location.exit.thread.us49:         ; preds = %match_internal_location.exit.us47, %21, %.lr.ph.split.us44
  %indvars.iv.next = add nuw nsw i64 %indvars.iv, 1
  %exitcond.not = icmp eq i64 %indvars.iv.next, %wide.trip.count
  br i1 %exitcond.not, label %._crit_edge, label %.lr.ph.split.us44, !llvm.loop !91

._crit_edge:                                      ; preds = %match_internal_location.exit.thread.us49, %match_internal_location.exit.thread.us, %.lr.ph, %3
  %.not = icmp eq i32 %2, 0
  br i1 %.not, label %.loopexit, label %29

29:                                               ; preds = %._crit_edge
  %30 = getelementptr inbounds nuw i8, ptr %0, i64 40
  %31 = load ptr, ptr %30, align 8, !tbaa !44
  %32 = add i32 %5, 1
  %33 = zext i32 %32 to i64
  %34 = mul nuw nsw i64 %33, 40
  %35 = tail call ptr @realloc(ptr noundef %31, i64 noundef %34) #32
  %.not31 = icmp eq ptr %35, null
  br i1 %.not31, label %.loopexit, label %36

36:                                               ; preds = %29
  %37 = load i32, ptr %4, align 8, !tbaa !40
  %38 = zext i32 %37 to i64
  %39 = getelementptr inbounds nuw %struct.hwloc_internal_memattr_initiator_s, ptr %35, i64 %38
  tail call void @llvm.memcpy.p0.p0.i64(ptr noundef nonnull align 8 dereferenceable(32) %39, ptr noundef nonnull align 8 dereferenceable(32) %1, i64 32, i1 false), !tbaa.struct !145
  %40 = load i32, ptr %1, align 8, !tbaa !93
  %41 = icmp eq i32 %40, 1
  br i1 %41, label %42, label %47

42:                                               ; preds = %36
  %43 = getelementptr inbounds nuw i8, ptr %1, i64 8
  %44 = load ptr, ptr %43, align 8, !tbaa !48
  %45 = tail call noalias ptr @hwloc_bitmap_dup(ptr noundef %44) #29
  %46 = getelementptr inbounds nuw i8, ptr %39, i64 8
  store ptr %45, ptr %46, align 8, !tbaa !48
  %.not32 = icmp eq ptr %45, null
  br i1 %.not32, label %.loopexit.sink.split, label %._crit_edge68

._crit_edge68:                                    ; preds = %42
  %.pre = load i32, ptr %4, align 8, !tbaa !40
  br label %47

47:                                               ; preds = %._crit_edge68, %36
  %48 = phi i32 [ %.pre, %._crit_edge68 ], [ %37, %36 ]
  %49 = add i32 %48, 1
  store i32 %49, ptr %4, align 8, !tbaa !40
  br label %.loopexit.sink.split

.loopexit.sink.split:                             ; preds = %42, %47
  %.2.ph = phi ptr [ %39, %47 ], [ null, %42 ]
  store ptr %35, ptr %30, align 8, !tbaa !44
  br label %.loopexit

.loopexit:                                        ; preds = %match_internal_location.exit.us47, %match_internal_location.exit.us, %.loopexit.sink.split, %29, %._crit_edge
  %.2 = phi ptr [ null, %._crit_edge ], [ null, %29 ], [ %.2.ph, %.loopexit.sink.split ], [ %12, %match_internal_location.exit.us ], [ %19, %match_internal_location.exit.us47 ]
  ret ptr %.2
}